; Function Attrs: nounwind uwtable
define range(i32 -901, 1) i32 @nghttp2_hd_inflate_new2(ptr noundef writeonly captures(none) %0, ptr noundef %1) local_unnamed_addr #0 {
  %3 = icmp eq ptr %1, null
  br i1 %3, label %4, label %6

4:                                                ; preds = %2
  %5 = tail call ptr @nghttp2_mem_default() #12
  br label %6

6:                                                ; preds = %4, %2
  %.011 = phi ptr [ %5, %4 ], [ %1, %2 ]
  %7 = tail call ptr @nghttp2_mem_malloc(ptr noundef %.011, i64 noundef 240) #12
  %8 = icmp eq ptr %7, null
  br i1 %8, label %33, label %9

9:                                                ; preds = %6
  %10 = getelementptr inbounds nuw i8, ptr %7, i64 32
  store ptr %.011, ptr %10, align 8, !tbaa !33
  %11 = getelementptr inbounds nuw i8, ptr %7, i64 60
  store i8 0, ptr %11, align 4, !tbaa !38
  %12 = getelementptr inbounds nuw i8, ptr %7, i64 48
  store i64 4096, ptr %12, align 8, !tbaa !39
  %13 = tail call ptr @nghttp2_mem_malloc(ptr noundef %.011, i64 noundef 1024) #12
  store ptr %13, ptr %7, align 8, !tbaa !40
  %14 = icmp eq ptr %13, null
  br i1 %14, label %nghttp2_hd_inflate_init.exit, label %15

nghttp2_hd_inflate_init.exit:                     ; preds = %9
  tail call void @nghttp2_mem_free(ptr noundef %.011, ptr noundef nonnull %7) #12
  br label %33

15:                                               ; preds = %9
  %16 = getelementptr inbounds nuw i8, ptr %7, i64 8
  store i64 127, ptr %16, align 8, !tbaa !41
  %17 = getelementptr inbounds nuw i8, ptr %7, i64 16
  tail call void @llvm.memset.p0.i64(ptr noundef nonnull align 8 dereferenceable(16) %17, i8 0, i64 16, i1 false)
  %18 = getelementptr inbounds nuw i8, ptr %7, i64 40
  store i64 0, ptr %18, align 8, !tbaa !42
  %19 = getelementptr inbounds nuw i8, ptr %7, i64 56
  store i32 0, ptr %19, align 8, !tbaa !43
  %20 = getelementptr inbounds nuw i8, ptr %7, i64 200
  store i64 4096, ptr %20, align 8, !tbaa !50
  %21 = getelementptr inbounds nuw i8, ptr %7, i64 208
  store i64 4294967295, ptr %21, align 8, !tbaa !55
  %22 = getelementptr inbounds nuw i8, ptr %7, i64 168
  %23 = getelementptr inbounds nuw i8, ptr %7, i64 224
  store i32 0, ptr %23, align 8, !tbaa !56
  %24 = getelementptr inbounds nuw i8, ptr %7, i64 228
  tail call void @llvm.memset.p0.i64(ptr noundef nonnull align 8 dereferenceable(16) %22, i8 0, i64 16, i1 false)
  store i32 1, ptr %24, align 4, !tbaa !57
  %25 = getelementptr inbounds nuw i8, ptr %7, i64 72
  tail call void @nghttp2_buf_init(ptr noundef nonnull %25) #12
  %26 = getelementptr inbounds nuw i8, ptr %7, i64 112
  tail call void @nghttp2_buf_init(ptr noundef nonnull %26) #12
  %27 = getelementptr inbounds nuw i8, ptr %7, i64 152
  %28 = getelementptr inbounds nuw i8, ptr %7, i64 232
  store i8 0, ptr %28, align 8, !tbaa !58
  %29 = getelementptr inbounds nuw i8, ptr %7, i64 184
  %30 = getelementptr inbounds nuw i8, ptr %7, i64 216
  store i64 0, ptr %30, align 8, !tbaa !59
  %31 = getelementptr inbounds nuw i8, ptr %7, i64 233
  store i8 0, ptr %31, align 1, !tbaa !60
  %32 = getelementptr inbounds nuw i8, ptr %7, i64 234
  store i8 0, ptr %32, align 2, !tbaa !61
  tail call void @llvm.memset.p0.i64(ptr noundef nonnull align 8 dereferenceable(16) %27, i8 0, i64 16, i1 false)
  tail call void @llvm.memset.p0.i64(ptr noundef nonnull align 8 dereferenceable(16) %29, i8 0, i64 16, i1 false)
  store ptr %7, ptr %0, align 8, !tbaa !120
  br label %33

33:                                               ; preds = %6, %15, %nghttp2_hd_inflate_init.exit
  %.0 = phi i32 [ -901, %nghttp2_hd_inflate_init.exit ], [ 0, %15 ], [ -901, %6 ]
  ret i32 %.0
}